; ModuleID = '39/428.c'
source_filename = "39/428.c"
target datalayout = "e-m:e-p270:32:32-p271:32:32-p272:64:64-i64:64-f80:128-n8:16:32:64-S128"
target triple = "x86_64-pc-linux-gnu"

%struct.student = type { [20 x i8], i32, i32, i32, [2 x i8], [2 x i8] }

@.str = private unnamed_addr constant [3 x i8] c"%d\00", align 1
@.str.1 = private unnamed_addr constant [4 x i8] c"%s \00", align 1
@.str.2 = private unnamed_addr constant [4 x i8] c"%d \00", align 1
@.str.3 = private unnamed_addr constant [4 x i8] c"%s\0A\00", align 1
@.str.4 = private unnamed_addr constant [4 x i8] c"%d\0A\00", align 1

; Function Attrs: noinline nounwind uwtable
define dso_local i32 @main() #0 {
  %1 = alloca i32, align 4
  %2 = alloca i32, align 4
  %3 = alloca i32, align 4
  %4 = alloca [100 x i32], align 16
  %5 = alloca i32, align 4
  %6 = alloca i32, align 4
  %7 = alloca i32, align 4
  %8 = alloca [100 x %struct.student], align 16
  store i32 0, i32* %1, align 4
  store i32 0, i32* %5, align 4
  store i32 0, i32* %6, align 4
  store i32 0, i32* %7, align 4
  %9 = call i32 (i8*, ...) @__isoc99_scanf(i8* getelementptr inbounds ([3 x i8], [3 x i8]* @.str, i64 0, i64 0), i32* %3)
  store i32 0, i32* %2, align 4
  br label %10

10:                                               ; preds = %46, %0
  %11 = load i32, i32* %2, align 4
  %12 = load i32, i32* %3, align 4
  %13 = icmp slt i32 %11, %12
  br i1 %13, label %14, label %49

14:                                               ; preds = %10
  %15 = load i32, i32* %2, align 4
  %16 = sext i32 %15 to i64
  %17 = getelementptr inbounds [100 x %struct.student], [100 x %struct.student]* %8, i64 0, i64 %16
  %18 = getelementptr inbounds %struct.student, %struct.student* %17, i32 0, i32 0
  %19 = getelementptr inbounds [20 x i8], [20 x i8]* %18, i64 0, i64 0
  %20 = call i32 (i8*, ...) @__isoc99_scanf(i8* getelementptr inbounds ([4 x i8], [4 x i8]* @.str.1, i64 0, i64 0), i8* %19)
  %21 = load i32, i32* %2, align 4
  %22 = sext i32 %21 to i64
  %23 = getelementptr inbounds [100 x %struct.student], [100 x %struct.student]* %8, i64 0, i64 %22
  %24 = getelementptr inbounds %struct.student, %struct.student* %23, i32 0, i32 1
  %25 = call i32 (i8*, ...) @__isoc99_scanf(i8* getelementptr inbounds ([4 x i8], [4 x i8]* @.str.2, i64 0, i64 0), i32* %24)
  %26 = load i32, i32* %2, align 4
  %27 = sext i32 %26 to i64
  %28 = getelementptr inbounds [100 x %struct.student], [100 x %struct.student]* %8, i64 0, i64 %27
  %29 = getelementptr inbounds %struct.student, %struct.student* %28, i32 0, i32 2
  %30 = call i32 (i8*, ...) @__isoc99_scanf(i8* getelementptr inbounds ([4 x i8], [4 x i8]* @.str.2, i64 0, i64 0), i32* %29)
  %31 = load i32, i32* %2, align 4
  %32 = sext i32 %31 to i64
  %33 = getelementptr inbounds [100 x %struct.student], [100 x %struct.student]* %8, i64 0, i64 %32
  %34 = getelementptr inbounds %struct.student, %struct.student* %33, i32 0, i32 4
  %35 = call i32 (i8*, ...) @__isoc99_scanf(i8* getelementptr inbounds ([4 x i8], [4 x i8]* @.str.1, i64 0, i64 0), [2 x i8]* %34)
  %36 = load i32, i32* %2, align 4
  %37 = sext i32 %36 to i64
  %38 = getelementptr inbounds [100 x %struct.student], [100 x %struct.student]* %8, i64 0, i64 %37
  %39 = getelementptr inbounds %struct.student, %struct.student* %38, i32 0, i32 5
  %40 = call i32 (i8*, ...) @__isoc99_scanf(i8* getelementptr inbounds ([4 x i8], [4 x i8]* @.str.1, i64 0, i64 0), [2 x i8]* %39)
  %41 = load i32, i32* %2, align 4
  %42 = sext i32 %41 to i64
  %43 = getelementptr inbounds [100 x %struct.student], [100 x %struct.student]* %8, i64 0, i64 %42
  %44 = getelementptr inbounds %struct.student, %struct.student* %43, i32 0, i32 3
  %45 = call i32 (i8*, ...) @__isoc99_scanf(i8* getelementptr inbounds ([3 x i8], [3 x i8]* @.str, i64 0, i64 0), i32* %44)
  br label %46

46:                                               ; preds = %14
  %47 = load i32, i32* %2, align 4
  %48 = add nsw i32 %47, 1
  store i32 %48, i32* %2, align 4
  br label %10

49:                                               ; preds = %10
  store i32 0, i32* %2, align 4
  br label %50

50:                                               ; preds = %155, %49
  %51 = load i32, i32* %2, align 4
  %52 = load i32, i32* %3, align 4
  %53 = icmp slt i32 %51, %52
  br i1 %53, label %54, label %158

54:                                               ; preds = %50
  %55 = load i32, i32* %2, align 4
  %56 = sext i32 %55 to i64
  %57 = getelementptr inbounds [100 x i32], [100 x i32]* %4, i64 0, i64 %56
  store i32 0, i32* %57, align 4
  %58 = load i32, i32* %2, align 4
  %59 = sext i32 %58 to i64
  %60 = getelementptr inbounds [100 x %struct.student], [100 x %struct.student]* %8, i64 0, i64 %59
  %61 = getelementptr inbounds %struct.student, %struct.student* %60, i32 0, i32 1
  %62 = load i32, i32* %61, align 4
  %63 = icmp sgt i32 %62, 80
  br i1 %63, label %64, label %77

64:                                               ; preds = %54
  %65 = load i32, i32* %2, align 4
  %66 = sext i32 %65 to i64
  %67 = getelementptr inbounds [100 x %struct.student], [100 x %struct.student]* %8, i64 0, i64 %66
  %68 = getelementptr inbounds %struct.student, %struct.student* %67, i32 0, i32 3
  %69 = load i32, i32* %68, align 4
  %70 = icmp sge i32 %69, 1
  br i1 %70, label %71, label %77

71:                                               ; preds = %64
  %72 = load i32, i32* %2, align 4
  %73 = sext i32 %72 to i64
  %74 = getelementptr inbounds [100 x i32], [100 x i32]* %4, i64 0, i64 %73
  %75 = load i32, i32* %74, align 4
  %76 = add nsw i32 %75, 8000
  store i32 %76, i32* %74, align 4
  br label %77

77:                                               ; preds = %71, %64, %54
  %78 = load i32, i32* %2, align 4
  %79 = sext i32 %78 to i64
  %80 = getelementptr inbounds [100 x %struct.student], [100 x %struct.student]* %8, i64 0, i64 %79
  %81 = getelementptr inbounds %struct.student, %struct.student* %80, i32 0, i32 1
  %82 = load i32, i32* %81, align 4
  %83 = icmp sgt i32 %82, 85
  br i1 %83, label %84, label %97

84:                                               ; preds = %77
  %85 = load i32, i32* %2, align 4
  %86 = sext i32 %85 to i64
  %87 = getelementptr inbounds [100 x %struct.student], [100 x %struct.student]* %8, i64 0, i64 %86
  %88 = getelementptr inbounds %struct.student, %struct.student* %87, i32 0, i32 2
  %89 = load i32, i32* %88, align 4
  %90 = icmp sgt i32 %89, 80
  br i1 %90, label %91, label %97

91:                                               ; preds = %84
  %92 = load i32, i32* %2, align 4
  %93 = sext i32 %92 to i64
  %94 = getelementptr inbounds [100 x i32], [100 x i32]* %4, i64 0, i64 %93
  %95 = load i32, i32* %94, align 4
  %96 = add nsw i32 %95, 4000
  store i32 %96, i32* %94, align 4
  br label %97

97:                                               ; preds = %91, %84, %77
  %98 = load i32, i32* %2, align 4
  %99 = sext i32 %98 to i64
  %100 = getelementptr inbounds [100 x %struct.student], [100 x %struct.student]* %8, i64 0, i64 %99
  %101 = getelementptr inbounds %struct.student, %struct.student* %100, i32 0, i32 1
  %102 = load i32, i32* %101, align 4
  %103 = icmp sgt i32 %102, 90
  br i1 %103, label %104, label %110

104:                                              ; preds = %97
  %105 = load i32, i32* %2, align 4
  %106 = sext i32 %105 to i64
  %107 = getelementptr inbounds [100 x i32], [100 x i32]* %4, i64 0, i64 %106
  %108 = load i32, i32* %107, align 4
  %109 = add nsw i32 %108, 2000
  store i32 %109, i32* %107, align 4
  br label %110

110:                                              ; preds = %104, %97
  %111 = load i32, i32* %2, align 4
  %112 = sext i32 %111 to i64
  %113 = getelementptr inbounds [100 x %struct.student], [100 x %struct.student]* %8, i64 0, i64 %112
  %114 = getelementptr inbounds %struct.student, %struct.student* %113, i32 0, i32 1
  %115 = load i32, i32* %114, align 4
  %116 = icmp sgt i32 %115, 85
  br i1 %116, label %117, label %132

117:                                              ; preds = %110
  %118 = load i32, i32* %2, align 4
  %119 = sext i32 %118 to i64
  %120 = getelementptr inbounds [100 x %struct.student], [100 x %struct.student]* %8, i64 0, i64 %119
  %121 = getelementptr inbounds %struct.student, %struct.student* %120, i32 0, i32 5
  %122 = getelementptr inbounds [2 x i8], [2 x i8]* %121, i64 0, i64 0
  %123 = load i8, i8* %122, align 2
  %124 = sext i8 %123 to i32
  %125 = icmp eq i32 %124, 89
  br i1 %125, label %126, label %132

126:                                              ; preds = %117
  %127 = load i32, i32* %2, align 4
  %128 = sext i32 %127 to i64
  %129 = getelementptr inbounds [100 x i32], [100 x i32]* %4, i64 0, i64 %128
  %130 = load i32, i32* %129, align 4
  %131 = add nsw i32 %130, 1000
  store i32 %131, i32* %129, align 4
  br label %132

132:                                              ; preds = %126, %117, %110
  %133 = load i32, i32* %2, align 4
  %134 = sext i32 %133 to i64
  %135 = getelementptr inbounds [100 x %struct.student], [100 x %struct.student]* %8, i64 0, i64 %134
  %136 = getelementptr inbounds %struct.student, %struct.student* %135, i32 0, i32 2
  %137 = load i32, i32* %136, align 4
  %138 = icmp sgt i32 %137, 80
  br i1 %138, label %139, label %154

139:                                              ; preds = %132
  %140 = load i32, i32* %2, align 4
  %141 = sext i32 %140 to i64
  %142 = getelementptr inbounds [100 x %struct.student], [100 x %struct.student]* %8, i64 0, i64 %141
  %143 = getelementptr inbounds %struct.student, %struct.student* %142, i32 0, i32 4
  %144 = getelementptr inbounds [2 x i8], [2 x i8]* %143, i64 0, i64 0
  %145 = load i8, i8* %144, align 4
  %146 = sext i8 %145 to i32
  %147 = icmp eq i32 %146, 89
  br i1 %147, label %148, label %154

148:                                              ; preds = %139
  %149 = load i32, i32* %2, align 4
  %150 = sext i32 %149 to i64
  %151 = getelementptr inbounds [100 x i32], [100 x i32]* %4, i64 0, i64 %150
  %152 = load i32, i32* %151, align 4
  %153 = add nsw i32 %152, 850
  store i32 %153, i32* %151, align 4
  br label %154

154:                                              ; preds = %148, %139, %132
  br label %155

155:                                              ; preds = %154
  %156 = load i32, i32* %2, align 4
  %157 = add nsw i32 %156, 1
  store i32 %157, i32* %2, align 4
  br label %50

158:                                              ; preds = %50
  store i32 0, i32* %2, align 4
  br label %159

159:                                              ; preds = %183, %158
  %160 = load i32, i32* %2, align 4
  %161 = load i32, i32* %3, align 4
  %162 = icmp slt i32 %160, %161
  br i1 %162, label %163, label %186

163:                                              ; preds = %159
  %164 = load i32, i32* %2, align 4
  %165 = sext i32 %164 to i64
  %166 = getelementptr inbounds [100 x i32], [100 x i32]* %4, i64 0, i64 %165
  %167 = load i32, i32* %166, align 4
  %168 = load i32, i32* %5, align 4
  %169 = icmp sgt i32 %167, %168
  br i1 %169, label %170, label %176

170:                                              ; preds = %163
  %171 = load i32, i32* %2, align 4
  %172 = sext i32 %171 to i64
  %173 = getelementptr inbounds [100 x i32], [100 x i32]* %4, i64 0, i64 %172
  %174 = load i32, i32* %173, align 4
  store i32 %174, i32* %5, align 4
  %175 = load i32, i32* %2, align 4
  store i32 %175, i32* %7, align 4
  br label %176

176:                                              ; preds = %170, %163
  %177 = load i32, i32* %6, align 4
  %178 = load i32, i32* %2, align 4
  %179 = sext i32 %178 to i64
  %180 = getelementptr inbounds [100 x i32], [100 x i32]* %4, i64 0, i64 %179
  %181 = load i32, i32* %180, align 4
  %182 = add nsw i32 %177, %181
  store i32 %182, i32* %6, align 4
  br label %183

183:                                              ; preds = %176
  %184 = load i32, i32* %2, align 4
  %185 = add nsw i32 %184, 1
  store i32 %185, i32* %2, align 4
  br label %159

186:                                              ; preds = %159
  %187 = load i32, i32* %7, align 4
  %188 = sext i32 %187 to i64
  %189 = getelementptr inbounds [100 x %struct.student], [100 x %struct.student]* %8, i64 0, i64 %188
  %190 = getelementptr inbounds %struct.student, %struct.student* %189, i32 0, i32 0
  %191 = getelementptr inbounds [20 x i8], [20 x i8]* %190, i64 0, i64 0
  %192 = call i32 (i8*, ...) @printf(i8* getelementptr inbounds ([4 x i8], [4 x i8]* @.str.3, i64 0, i64 0), i8* %191)
  %193 = load i32, i32* %7, align 4
  %194 = sext i32 %193 to i64
  %195 = getelementptr inbounds [100 x i32], [100 x i32]* %4, i64 0, i64 %194
  %196 = load i32, i32* %195, align 4
  %197 = call i32 (i8*, ...) @printf(i8* getelementptr inbounds ([4 x i8], [4 x i8]* @.str.4, i64 0, i64 0), i32 %196)
  %198 = load i32, i32* %6, align 4
  %199 = call i32 (i8*, ...) @printf(i8* getelementptr inbounds ([4 x i8], [4 x i8]* @.str.4, i64 0, i64 0), i32 %198)
  ret i32 0
}

declare dso_local i32 @__isoc99_scanf(i8*, ...) #1

declare dso_local i32 @printf(i8*, ...) #1


!llvm.module.flags = !{!0}
!llvm.ident = !{!1}

!0 = !{i32 1, !"wchar_size", i32 4}
!1 = !{!"clang version 10.0.0-4ubuntu1 "}
